target datalayout = "e-m:e-p270:32:32-p271:32:32-p272:64:64-i64:64-i128:128-f80:128-n8:16:32:64-S128"
target triple = "x86_64-pc-linux-gnu"

%struct.grpc_slice = type { ptr, %"union.grpc_slice::grpc_slice_data" }
%"union.grpc_slice::grpc_slice_data" = type { %"struct.grpc_slice::grpc_slice_data::grpc_slice_refcounted", [8 x i8] }
%"struct.grpc_slice::grpc_slice_data::grpc_slice_refcounted" = type { i64, ptr }
%"struct.grpc_slice::grpc_slice_data::grpc_slice_inlined" = type { i8, [23 x i8] }

; Function Attrs: mustprogress uwtable
define void @_Z23grpc_chttp2_ping_createhm(ptr dead_on_unwind noalias writable sret(%struct.grpc_slice) align 8 %0, i8 noundef zeroext %1, i64 noundef %2) #4 {
  %4 = alloca i8, align 1
  %5 = alloca i64, align 8
  %6 = alloca ptr, align 8
  store i8 %1, ptr %4, align 1, !tbaa !3
  store i64 %2, ptr %5, align 8, !tbaa !6
  call void @grpc_slice_malloc(ptr dead_on_unwind writable sret(%struct.grpc_slice) align 8 %0, i64 noundef 17)
  call void @llvm.lifetime.start.p0(i64 8, ptr %6) #3
  %7 = getelementptr inbounds nuw %struct.grpc_slice, ptr %0, i32 0, i32 0
  %8 = load ptr, ptr %7, align 8, !tbaa !8
  %9 = icmp ne ptr %8, null
  br i1 %9, label %10, label %14

10:                                               ; preds = %3
  %11 = getelementptr inbounds nuw %struct.grpc_slice, ptr %0, i32 0, i32 1
  %12 = getelementptr inbounds nuw %"struct.grpc_slice::grpc_slice_data::grpc_slice_refcounted", ptr %11, i32 0, i32 1
  %13 = load ptr, ptr %12, align 8, !tbaa !3
  br label %18

14:                                               ; preds = %3
  %15 = getelementptr inbounds nuw %struct.grpc_slice, ptr %0, i32 0, i32 1
  %16 = getelementptr inbounds nuw %"struct.grpc_slice::grpc_slice_data::grpc_slice_inlined", ptr %15, i32 0, i32 1
  %17 = getelementptr inbounds [23 x i8], ptr %16, i64 0, i64 0
  br label %18

18:                                               ; preds = %14, %10
  %19 = phi ptr [ %13, %10 ], [ %17, %14 ]
  store ptr %19, ptr %6, align 8, !tbaa !12
  %20 = load ptr, ptr %6, align 8, !tbaa !12
  %21 = getelementptr inbounds nuw i8, ptr %20, i32 1
  store ptr %21, ptr %6, align 8, !tbaa !12
  store i8 0, ptr %20, align 1, !tbaa !3
  %22 = load ptr, ptr %6, align 8, !tbaa !12
  %23 = getelementptr inbounds nuw i8, ptr %22, i32 1
  store ptr %23, ptr %6, align 8, !tbaa !12
  store i8 0, ptr %22, align 1, !tbaa !3
  %24 = load ptr, ptr %6, align 8, !tbaa !12
  %25 = getelementptr inbounds nuw i8, ptr %24, i32 1
  store ptr %25, ptr %6, align 8, !tbaa !12
  store i8 8, ptr %24, align 1, !tbaa !3
  %26 = load ptr, ptr %6, align 8, !tbaa !12
  %27 = getelementptr inbounds nuw i8, ptr %26, i32 1
  store ptr %27, ptr %6, align 8, !tbaa !12
  store i8 6, ptr %26, align 1, !tbaa !3
  %28 = load i8, ptr %4, align 1, !tbaa !3
  %29 = icmp ne i8 %28, 0
  %30 = select i1 %29, i32 1, i32 0
  %31 = trunc i32 %30 to i8
  %32 = load ptr, ptr %6, align 8, !tbaa !12
  %33 = getelementptr inbounds nuw i8, ptr %32, i32 1
  store ptr %33, ptr %6, align 8, !tbaa !12
  store i8 %31, ptr %32, align 1, !tbaa !3
  %34 = load ptr, ptr %6, align 8, !tbaa !12
  %35 = getelementptr inbounds nuw i8, ptr %34, i32 1
  store ptr %35, ptr %6, align 8, !tbaa !12
  store i8 0, ptr %34, align 1, !tbaa !3
  %36 = load ptr, ptr %6, align 8, !tbaa !12
  %37 = getelementptr inbounds nuw i8, ptr %36, i32 1
  store ptr %37, ptr %6, align 8, !tbaa !12
  store i8 0, ptr %36, align 1, !tbaa !3
  %38 = load ptr, ptr %6, align 8, !tbaa !12
  %39 = getelementptr inbounds nuw i8, ptr %38, i32 1
  store ptr %39, ptr %6, align 8, !tbaa !12
  store i8 0, ptr %38, align 1, !tbaa !3
  %40 = load ptr, ptr %6, align 8, !tbaa !12
  %41 = getelementptr inbounds nuw i8, ptr %40, i32 1
  store ptr %41, ptr %6, align 8, !tbaa !12
  store i8 0, ptr %40, align 1, !tbaa !3
  %42 = load i64, ptr %5, align 8, !tbaa !6
  %43 = lshr i64 %42, 56
  %44 = trunc i64 %43 to i8
  %45 = load ptr, ptr %6, align 8, !tbaa !12
  %46 = getelementptr inbounds nuw i8, ptr %45, i32 1
  store ptr %46, ptr %6, align 8, !tbaa !12
  store i8 %44, ptr %45, align 1, !tbaa !3
  %47 = load i64, ptr %5, align 8, !tbaa !6
  %48 = lshr i64 %47, 48
  %49 = trunc i64 %48 to i8
  %50 = load ptr, ptr %6, align 8, !tbaa !12
  %51 = getelementptr inbounds nuw i8, ptr %50, i32 1
  store ptr %51, ptr %6, align 8, !tbaa !12
  store i8 %49, ptr %50, align 1, !tbaa !3
  %52 = load i64, ptr %5, align 8, !tbaa !6
  %53 = lshr i64 %52, 40
  %54 = trunc i64 %53 to i8
  %55 = load ptr, ptr %6, align 8, !tbaa !12
  %56 = getelementptr inbounds nuw i8, ptr %55, i32 1
  store ptr %56, ptr %6, align 8, !tbaa !12
  store i8 %54, ptr %55, align 1, !tbaa !3
  %57 = load i64, ptr %5, align 8, !tbaa !6
  %58 = lshr i64 %57, 32
  %59 = trunc i64 %58 to i8
  %60 = load ptr, ptr %6, align 8, !tbaa !12
  %61 = getelementptr inbounds nuw i8, ptr %60, i32 1
  store ptr %61, ptr %6, align 8, !tbaa !12
  store i8 %59, ptr %60, align 1, !tbaa !3
  %62 = load i64, ptr %5, align 8, !tbaa !6
  %63 = lshr i64 %62, 24
  %64 = trunc i64 %63 to i8
  %65 = load ptr, ptr %6, align 8, !tbaa !12
  %66 = getelementptr inbounds nuw i8, ptr %65, i32 1
  store ptr %66, ptr %6, align 8, !tbaa !12
  store i8 %64, ptr %65, align 1, !tbaa !3
  %67 = load i64, ptr %5, align 8, !tbaa !6
  %68 = lshr i64 %67, 16
  %69 = trunc i64 %68 to i8
  %70 = load ptr, ptr %6, align 8, !tbaa !12
  %71 = getelementptr inbounds nuw i8, ptr %70, i32 1
  store ptr %71, ptr %6, align 8, !tbaa !12
  store i8 %69, ptr %70, align 1, !tbaa !3
  %72 = load i64, ptr %5, align 8, !tbaa !6
  %73 = lshr i64 %72, 8
  %74 = trunc i64 %73 to i8
  %75 = load ptr, ptr %6, align 8, !tbaa !12
  %76 = getelementptr inbounds nuw i8, ptr %75, i32 1
  store ptr %76, ptr %6, align 8, !tbaa !12
  store i8 %74, ptr %75, align 1, !tbaa !3
  %77 = load i64, ptr %5, align 8, !tbaa !6
  %78 = trunc i64 %77 to i8
  %79 = load ptr, ptr %6, align 8, !tbaa !12
  %80 = getelementptr inbounds nuw i8, ptr %79, i32 1
  store ptr %80, ptr %6, align 8, !tbaa !12
  store i8 %78, ptr %79, align 1, !tbaa !3
  call void @llvm.lifetime.end.p0(i64 8, ptr %6) #3
  ret void
}