; Function Attrs: mustprogress uwtable
define void @_Z23grpc_chttp2_ping_createhm(ptr dead_on_unwind noalias writable sret(%struct.grpc_slice) align 8 %0, i8 noundef zeroext %1, i64 noundef %2) local_unnamed_addr #3 {
  tail call void @grpc_slice_malloc(ptr dead_on_unwind writable sret(%struct.grpc_slice) align 8 %0, i64 noundef 17)
  %4 = load ptr, ptr %0, align 8, !tbaa !3
  %.not = icmp eq ptr %4, null
  %5 = getelementptr inbounds nuw i8, ptr %0, i64 16
  %6 = load ptr, ptr %5, align 8
  %7 = getelementptr inbounds nuw i8, ptr %0, i64 9
  %8 = select i1 %.not, ptr %7, ptr %6
  %9 = getelementptr inbounds nuw i8, ptr %8, i64 1
  store i8 0, ptr %8, align 1, !tbaa !9
  %10 = getelementptr inbounds nuw i8, ptr %8, i64 2
  store i8 0, ptr %9, align 1, !tbaa !9
  %11 = getelementptr inbounds nuw i8, ptr %8, i64 3
  store i8 8, ptr %10, align 1, !tbaa !9
  %12 = getelementptr inbounds nuw i8, ptr %8, i64 4
  store i8 6, ptr %11, align 1, !tbaa !9
  %.not25 = icmp ne i8 %1, 0
  %13 = zext i1 %.not25 to i8
  %14 = getelementptr inbounds nuw i8, ptr %8, i64 5
  store i8 %13, ptr %12, align 1, !tbaa !9
  %15 = getelementptr inbounds nuw i8, ptr %8, i64 9
  %16 = lshr i64 %2, 56
  %17 = trunc nuw i64 %16 to i8
  %18 = getelementptr inbounds nuw i8, ptr %8, i64 10
  store i32 0, ptr %14, align 1
  store i8 %17, ptr %15, align 1, !tbaa !9
  %19 = lshr i64 %2, 48
  %20 = trunc i64 %19 to i8
  %21 = getelementptr inbounds nuw i8, ptr %8, i64 11
  store i8 %20, ptr %18, align 1, !tbaa !9
  %22 = lshr i64 %2, 40
  %23 = trunc i64 %22 to i8
  %24 = getelementptr inbounds nuw i8, ptr %8, i64 12
  store i8 %23, ptr %21, align 1, !tbaa !9
  %25 = lshr i64 %2, 32
  %26 = trunc i64 %25 to i8
  %27 = getelementptr inbounds nuw i8, ptr %8, i64 13
  store i8 %26, ptr %24, align 1, !tbaa !9
  %28 = lshr i64 %2, 24
  %29 = trunc i64 %28 to i8
  %30 = getelementptr inbounds nuw i8, ptr %8, i64 14
  store i8 %29, ptr %27, align 1, !tbaa !9
  %31 = lshr i64 %2, 16
  %32 = trunc i64 %31 to i8
  %33 = getelementptr inbounds nuw i8, ptr %8, i64 15
  store i8 %32, ptr %30, align 1, !tbaa !9
  %34 = lshr i64 %2, 8
  %35 = trunc i64 %34 to i8
  %36 = getelementptr inbounds nuw i8, ptr %8, i64 16
  store i8 %35, ptr %33, align 1, !tbaa !9
  %37 = trunc i64 %2 to i8
  store i8 %37, ptr %36, align 1, !tbaa !9
  ret void
}